; Function Attrs: nounwind uwtable
define ptr @evhttp_connection_base_bufferevent_new(ptr noundef %0, ptr noundef %1, ptr noundef %2, ptr noundef %3, i16 noundef zeroext %4) local_unnamed_addr #0 {
  %6 = load i32, ptr @event_debug_logging_mask_, align 4
  %.not = icmp eq i32 %6, 0
  br i1 %.not, label %9, label %7

7:                                                ; preds = %5
  %8 = zext i16 %4 to i32
  tail call void (ptr, ...) @event_debugx_(ptr noundef nonnull @.str.10, ptr noundef %3, i32 noundef %8) #18
  br label %9

9:                                                ; preds = %7, %5
  %10 = tail call fastcc ptr @evhttp_connection_new_(ptr noundef %0, ptr noundef %2)
  %cond = icmp eq ptr %10, null
  br i1 %cond, label %19, label %11

11:                                               ; preds = %9
  %12 = tail call ptr @event_mm_strdup_(ptr noundef %3) #18
  %13 = getelementptr inbounds nuw i8, ptr %10, i64 160
  store ptr %12, ptr %13, align 8
  %14 = icmp eq ptr %12, null
  br i1 %14, label %18, label %15

15:                                               ; preds = %11
  %16 = getelementptr inbounds nuw i8, ptr %10, i64 168
  store i16 %4, ptr %16, align 8
  %17 = getelementptr inbounds nuw i8, ptr %10, i64 392
  store ptr %1, ptr %17, align 8
  br label %19

18:                                               ; preds = %11
  tail call void (ptr, ...) @event_warn(ptr noundef nonnull @.str.9, ptr noundef nonnull @__func__.evhttp_connection_base_bufferevent_new) #18
  tail call void @evhttp_connection_free(ptr noundef nonnull %10)
  br label %19

19:                                               ; preds = %9, %18, %15
  %.0 = phi ptr [ %10, %15 ], [ null, %9 ], [ null, %18 ]
  ret ptr %.0
}